; ModuleID = '56/1302.c'
source_filename = "56/1302.c"
target datalayout = "e-m:e-p270:32:32-p271:32:32-p272:64:64-i64:64-f80:128-n8:16:32:64-S128"
target triple = "x86_64-pc-linux-gnu"

@.str = private unnamed_addr constant [3 x i8] c"%d\00", align 1

; Function Attrs: noinline nounwind uwtable
define dso_local void @main() #0 {
  %1 = alloca i32, align 4
  %2 = alloca i32, align 4
  %3 = alloca i32, align 4
  %4 = alloca i32, align 4
  %5 = alloca i32, align 4
  %6 = alloca i32, align 4
  %7 = alloca i32, align 4
  %8 = call i32 (i8*, ...) @__isoc99_scanf(i8* getelementptr inbounds ([3 x i8], [3 x i8]* @.str, i64 0, i64 0), i32* %1)
  %9 = load i32, i32* %1, align 4
  %10 = icmp sgt i32 %9, 10000
  br i1 %10, label %11, label %64

11:                                               ; preds = %0
  %12 = load i32, i32* %1, align 4
  %13 = sdiv i32 %12, 10000
  store i32 %13, i32* %2, align 4
  %14 = load i32, i32* %1, align 4
  %15 = load i32, i32* %2, align 4
  %16 = mul nsw i32 %15, 10000
  %17 = sub nsw i32 %14, %16
  %18 = sdiv i32 %17, 1000
  store i32 %18, i32* %3, align 4
  %19 = load i32, i32* %1, align 4
  %20 = load i32, i32* %2, align 4
  %21 = mul nsw i32 %20, 10000
  %22 = sub nsw i32 %19, %21
  %23 = load i32, i32* %3, align 4
  %24 = mul nsw i32 %23, 1000
  %25 = sub nsw i32 %22, %24
  %26 = sdiv i32 %25, 100
  store i32 %26, i32* %4, align 4
  %27 = load i32, i32* %1, align 4
  %28 = load i32, i32* %2, align 4
  %29 = mul nsw i32 %28, 10000
  %30 = sub nsw i32 %27, %29
  %31 = load i32, i32* %3, align 4
  %32 = mul nsw i32 %31, 1000
  %33 = sub nsw i32 %30, %32
  %34 = load i32, i32* %4, align 4
  %35 = mul nsw i32 %34, 100
  %36 = sub nsw i32 %33, %35
  %37 = sdiv i32 %36, 10
  store i32 %37, i32* %5, align 4
  %38 = load i32, i32* %1, align 4
  %39 = load i32, i32* %2, align 4
  %40 = mul nsw i32 %39, 10000
  %41 = sub nsw i32 %38, %40
  %42 = load i32, i32* %3, align 4
  %43 = mul nsw i32 %42, 1000
  %44 = sub nsw i32 %41, %43
  %45 = load i32, i32* %4, align 4
  %46 = mul nsw i32 %45, 100
  %47 = sub nsw i32 %44, %46
  %48 = load i32, i32* %5, align 4
  %49 = mul nsw i32 %48, 10
  %50 = sub nsw i32 %47, %49
  store i32 %50, i32* %6, align 4
  %51 = load i32, i32* %6, align 4
  %52 = mul nsw i32 %51, 10000
  %53 = load i32, i32* %5, align 4
  %54 = mul nsw i32 %53, 1000
  %55 = add nsw i32 %52, %54
  %56 = load i32, i32* %4, align 4
  %57 = mul nsw i32 %56, 100
  %58 = add nsw i32 %55, %57
  %59 = load i32, i32* %3, align 4
  %60 = mul nsw i32 %59, 10
  %61 = add nsw i32 %58, %60
  %62 = load i32, i32* %2, align 4
  %63 = add nsw i32 %61, %62
  store i32 %63, i32* %7, align 4
  br label %126

64:                                               ; preds = %0
  %65 = load i32, i32* %1, align 4
  %66 = icmp sgt i32 %65, 1000
  br i1 %66, label %67, label %103

67:                                               ; preds = %64
  %68 = load i32, i32* %1, align 4
  %69 = sdiv i32 %68, 1000
  store i32 %69, i32* %2, align 4
  %70 = load i32, i32* %1, align 4
  %71 = load i32, i32* %2, align 4
  %72 = mul nsw i32 %71, 1000
  %73 = sub nsw i32 %70, %72
  %74 = sdiv i32 %73, 100
  store i32 %74, i32* %3, align 4
  %75 = load i32, i32* %1, align 4
  %76 = load i32, i32* %2, align 4
  %77 = mul nsw i32 %76, 1000
  %78 = sub nsw i32 %75, %77
  %79 = load i32, i32* %3, align 4
  %80 = mul nsw i32 %79, 100
  %81 = sub nsw i32 %78, %80
  %82 = sdiv i32 %81, 10
  store i32 %82, i32* %4, align 4
  %83 = load i32, i32* %1, align 4
  %84 = load i32, i32* %2, align 4
  %85 = mul nsw i32 %84, 1000
  %86 = sub nsw i32 %83, %85
  %87 = load i32, i32* %3, align 4
  %88 = mul nsw i32 %87, 100
  %89 = sub nsw i32 %86, %88
  %90 = load i32, i32* %4, align 4
  %91 = mul nsw i32 %90, 10
  %92 = sub nsw i32 %89, %91
  store i32 %92, i32* %5, align 4
  %93 = load i32, i32* %5, align 4
  %94 = mul nsw i32 %93, 1000
  %95 = load i32, i32* %4, align 4
  %96 = mul nsw i32 %95, 100
  %97 = add nsw i32 %94, %96
  %98 = load i32, i32* %3, align 4
  %99 = mul nsw i32 %98, 10
  %100 = add nsw i32 %97, %99
  %101 = load i32, i32* %2, align 4
  %102 = add nsw i32 %100, %101
  store i32 %102, i32* %7, align 4
  br label %125

103:                                              ; preds = %64
  %104 = load i32, i32* %1, align 4
  %105 = sdiv i32 %104, 100
  store i32 %105, i32* %2, align 4
  %106 = load i32, i32* %1, align 4
  %107 = load i32, i32* %2, align 4
  %108 = mul nsw i32 %107, 100
  %109 = sub nsw i32 %106, %108
  %110 = sdiv i32 %109, 10
  store i32 %110, i32* %3, align 4
  %111 = load i32, i32* %1, align 4
  %112 = load i32, i32* %2, align 4
  %113 = mul nsw i32 %112, 100
  %114 = sub nsw i32 %111, %113
  %115 = load i32, i32* %3, align 4
  %116 = mul nsw i32 %115, 10
  %117 = sub nsw i32 %114, %116
  store i32 %117, i32* %4, align 4
  %118 = load i32, i32* %4, align 4
  %119 = mul nsw i32 %118, 100
  %120 = load i32, i32* %3, align 4
  %121 = mul nsw i32 %120, 10
  %122 = add nsw i32 %119, %121
  %123 = load i32, i32* %2, align 4
  %124 = add nsw i32 %122, %123
  store i32 %124, i32* %7, align 4
  br label %125

125:                                              ; preds = %103, %67
  br label %126

126:                                              ; preds = %125, %11
  %127 = load i32, i32* %7, align 4
  %128 = call i32 (i8*, ...) @printf(i8* getelementptr inbounds ([3 x i8], [3 x i8]* @.str, i64 0, i64 0), i32 %127)
  ret void
}

declare dso_local i32 @__isoc99_scanf(i8*, ...) #1

declare dso_local i32 @printf(i8*, ...) #1


!llvm.module.flags = !{!0}
!llvm.ident = !{!1}

!0 = !{i32 1, !"wchar_size", i32 4}
!1 = !{!"clang version 10.0.0-4ubuntu1 "}
